; Function Attrs: mustprogress uwtable
define dso_local void @_ZN23btDiscreteDynamicsWorld21removeCollisionObjectEP17btCollisionObject(ptr noundef nonnull align 8 dereferenceable(508) %this, ptr noundef %collisionObject) unnamed_addr #0 align 2 {
entry:
  %m_internalType.i.i = getelementptr inbounds i8, ptr %collisionObject, i64 272
  %0 = load i32, ptr %m_internalType.i.i, align 8
  %and.i = and i32 %0, 2
  %tobool.not.i = icmp eq i32 %and.i, 0
  %tobool.not3 = icmp eq ptr %collisionObject, null
  %tobool.not = or i1 %tobool.not3, %tobool.not.i
  br i1 %tobool.not, label %if.else, label %if.then

if.then:                                          ; preds = %entry
  %vtable = load ptr, ptr %this, align 8
  %vfn = getelementptr inbounds i8, ptr %vtable, i64 192
  %1 = load ptr, ptr %vfn, align 8
  tail call void %1(ptr noundef nonnull align 8 dereferenceable(508) %this, ptr noundef nonnull %collisionObject)
  br label %if.end

if.else:                                          ; preds = %entry
  tail call void @_ZN16btCollisionWorld21removeCollisionObjectEP17btCollisionObject(ptr noundef nonnull align 8 dereferenceable(121) %this, ptr noundef nonnull %collisionObject)
  br label %if.end

if.end:                                           ; preds = %if.else, %if.then
  ret void
}